; ModuleID = '21/1757.c'
source_filename = "21/1757.c"
target datalayout = "e-m:e-p270:32:32-p271:32:32-p272:64:64-i64:64-f80:128-n8:16:32:64-S128"
target triple = "x86_64-pc-linux-gnu"

@.str = private unnamed_addr constant [3 x i8] c"%d\00", align 1
@.str.1 = private unnamed_addr constant [4 x i8] c"%d,\00", align 1
@.str.2 = private unnamed_addr constant [6 x i8] c"%d,%d\00", align 1

; Function Attrs: noinline nounwind uwtable
define dso_local void @main() #0 {
  %1 = alloca i32, align 4
  %2 = alloca i32, align 4
  %3 = alloca [300 x i32], align 16
  %4 = alloca i32, align 4
  %5 = alloca i32, align 4
  %6 = alloca i32, align 4
  %7 = alloca float, align 4
  %8 = alloca [300 x float], align 16
  %9 = alloca float, align 4
  %10 = alloca float, align 4
  %11 = alloca float, align 4
  store i32 0, i32* %4, align 4
  store i32 0, i32* %5, align 4
  store float 0.000000e+00, float* %10, align 4
  %12 = call i32 (i8*, ...) @__isoc99_scanf(i8* getelementptr inbounds ([3 x i8], [3 x i8]* @.str, i64 0, i64 0), i32* %1)
  store i32 0, i32* %2, align 4
  br label %13

13:                                               ; preds = %22, %0
  %14 = load i32, i32* %2, align 4
  %15 = load i32, i32* %1, align 4
  %16 = icmp slt i32 %14, %15
  br i1 %16, label %17, label %25

17:                                               ; preds = %13
  %18 = load i32, i32* %2, align 4
  %19 = sext i32 %18 to i64
  %20 = getelementptr inbounds [300 x i32], [300 x i32]* %3, i64 0, i64 %19
  %21 = call i32 (i8*, ...) @__isoc99_scanf(i8* getelementptr inbounds ([4 x i8], [4 x i8]* @.str.1, i64 0, i64 0), i32* %20)
  br label %22

22:                                               ; preds = %17
  %23 = load i32, i32* %2, align 4
  %24 = add nsw i32 %23, 1
  store i32 %24, i32* %2, align 4
  br label %13

25:                                               ; preds = %13
  store i32 0, i32* %2, align 4
  br label %26

26:                                               ; preds = %38, %25
  %27 = load i32, i32* %2, align 4
  %28 = load i32, i32* %1, align 4
  %29 = icmp slt i32 %27, %28
  br i1 %29, label %30, label %41

30:                                               ; preds = %26
  %31 = load float, float* %10, align 4
  %32 = load i32, i32* %2, align 4
  %33 = sext i32 %32 to i64
  %34 = getelementptr inbounds [300 x i32], [300 x i32]* %3, i64 0, i64 %33
  %35 = load i32, i32* %34, align 4
  %36 = sitofp i32 %35 to float
  %37 = fadd float %31, %36
  store float %37, float* %10, align 4
  br label %38

38:                                               ; preds = %30
  %39 = load i32, i32* %2, align 4
  %40 = add nsw i32 %39, 1
  store i32 %40, i32* %2, align 4
  br label %26

41:                                               ; preds = %26
  %42 = load float, float* %10, align 4
  %43 = load i32, i32* %1, align 4
  %44 = sitofp i32 %43 to float
  %45 = fdiv float %42, %44
  store float %45, float* %7, align 4
  store i32 0, i32* %2, align 4
  br label %46

46:                                               ; preds = %61, %41
  %47 = load i32, i32* %2, align 4
  %48 = load i32, i32* %1, align 4
  %49 = icmp slt i32 %47, %48
  br i1 %49, label %50, label %64

50:                                               ; preds = %46
  %51 = load float, float* %7, align 4
  %52 = load i32, i32* %2, align 4
  %53 = sext i32 %52 to i64
  %54 = getelementptr inbounds [300 x i32], [300 x i32]* %3, i64 0, i64 %53
  %55 = load i32, i32* %54, align 4
  %56 = sitofp i32 %55 to float
  %57 = fsub float %51, %56
  %58 = load i32, i32* %2, align 4
  %59 = sext i32 %58 to i64
  %60 = getelementptr inbounds [300 x float], [300 x float]* %8, i64 0, i64 %59
  store float %57, float* %60, align 4
  br label %61

61:                                               ; preds = %50
  %62 = load i32, i32* %2, align 4
  %63 = add nsw i32 %62, 1
  store i32 %63, i32* %2, align 4
  br label %46

64:                                               ; preds = %46
  %65 = getelementptr inbounds [300 x float], [300 x float]* %8, i64 0, i64 0
  %66 = load float, float* %65, align 16
  store float %66, float* %11, align 4
  store i32 0, i32* %2, align 4
  br label %67

67:                                               ; preds = %109, %64
  %68 = load i32, i32* %2, align 4
  %69 = load i32, i32* %1, align 4
  %70 = icmp slt i32 %68, %69
  br i1 %70, label %71, label %112

71:                                               ; preds = %67
  %72 = load i32, i32* %2, align 4
  %73 = sext i32 %72 to i64
  %74 = getelementptr inbounds [300 x float], [300 x float]* %8, i64 0, i64 %73
  %75 = load float, float* %74, align 4
  %76 = load float, float* %11, align 4
  %77 = fcmp ogt float %75, %76
  br i1 %77, label %78, label %84

78:                                               ; preds = %71
  %79 = load i32, i32* %2, align 4
  %80 = sext i32 %79 to i64
  %81 = getelementptr inbounds [300 x float], [300 x float]* %8, i64 0, i64 %80
  %82 = load float, float* %81, align 4
  store float %82, float* %11, align 4
  %83 = load i32, i32* %2, align 4
  store i32 %83, i32* %4, align 4
  br label %84

84:                                               ; preds = %78, %71
  %85 = getelementptr inbounds [300 x float], [300 x float]* %8, i64 0, i64 0
  %86 = load float, float* %85, align 16
  store float %86, float* %9, align 4
  store i32 0, i32* %6, align 4
  br label %87

87:                                               ; preds = %105, %84
  %88 = load i32, i32* %6, align 4
  %89 = load i32, i32* %1, align 4
  %90 = icmp slt i32 %88, %89
  br i1 %90, label %91, label %108

91:                                               ; preds = %87
  %92 = load i32, i32* %6, align 4
  %93 = sext i32 %92 to i64
  %94 = getelementptr inbounds [300 x float], [300 x float]* %8, i64 0, i64 %93
  %95 = load float, float* %94, align 4
  %96 = load float, float* %9, align 4
  %97 = fcmp olt float %95, %96
  br i1 %97, label %98, label %104

98:                                               ; preds = %91
  %99 = load i32, i32* %6, align 4
  %100 = sext i32 %99 to i64
  %101 = getelementptr inbounds [300 x float], [300 x float]* %8, i64 0, i64 %100
  %102 = load float, float* %101, align 4
  store float %102, float* %9, align 4
  %103 = load i32, i32* %6, align 4
  store i32 %103, i32* %5, align 4
  br label %104

104:                                              ; preds = %98, %91
  br label %105

105:                                              ; preds = %104
  %106 = load i32, i32* %6, align 4
  %107 = add nsw i32 %106, 1
  store i32 %107, i32* %6, align 4
  br label %87

108:                                              ; preds = %87
  br label %109

109:                                              ; preds = %108
  %110 = load i32, i32* %2, align 4
  %111 = add nsw i32 %110, 1
  store i32 %111, i32* %2, align 4
  br label %67

112:                                              ; preds = %67
  %113 = load i32, i32* %4, align 4
  %114 = sext i32 %113 to i64
  %115 = getelementptr inbounds [300 x float], [300 x float]* %8, i64 0, i64 %114
  %116 = load float, float* %115, align 4
  %117 = load i32, i32* %5, align 4
  %118 = sext i32 %117 to i64
  %119 = getelementptr inbounds [300 x float], [300 x float]* %8, i64 0, i64 %118
  %120 = load float, float* %119, align 4
  %121 = fadd float %116, %120
  %122 = fcmp olt float %121, 0.000000e+00
  br i1 %122, label %123, label %129

123:                                              ; preds = %112
  %124 = load i32, i32* %5, align 4
  %125 = sext i32 %124 to i64
  %126 = getelementptr inbounds [300 x i32], [300 x i32]* %3, i64 0, i64 %125
  %127 = load i32, i32* %126, align 4
  %128 = call i32 (i8*, ...) @printf(i8* getelementptr inbounds ([3 x i8], [3 x i8]* @.str, i64 0, i64 0), i32 %127)
  br label %157

129:                                              ; preds = %112
  %130 = load i32, i32* %4, align 4
  %131 = sext i32 %130 to i64
  %132 = getelementptr inbounds [300 x float], [300 x float]* %8, i64 0, i64 %131
  %133 = load float, float* %132, align 4
  %134 = load i32, i32* %5, align 4
  %135 = sext i32 %134 to i64
  %136 = getelementptr inbounds [300 x float], [300 x float]* %8, i64 0, i64 %135
  %137 = load float, float* %136, align 4
  %138 = fadd float %133, %137
  %139 = fcmp ogt float %138, 0.000000e+00
  br i1 %139, label %140, label %146

140:                                              ; preds = %129
  %141 = load i32, i32* %4, align 4
  %142 = sext i32 %141 to i64
  %143 = getelementptr inbounds [300 x i32], [300 x i32]* %3, i64 0, i64 %142
  %144 = load i32, i32* %143, align 4
  %145 = call i32 (i8*, ...) @printf(i8* getelementptr inbounds ([3 x i8], [3 x i8]* @.str, i64 0, i64 0), i32 %144)
  br label %156

146:                                              ; preds = %129
  %147 = load i32, i32* %4, align 4
  %148 = sext i32 %147 to i64
  %149 = getelementptr inbounds [300 x i32], [300 x i32]* %3, i64 0, i64 %148
  %150 = load i32, i32* %149, align 4
  %151 = load i32, i32* %5, align 4
  %152 = sext i32 %151 to i64
  %153 = getelementptr inbounds [300 x i32], [300 x i32]* %3, i64 0, i64 %152
  %154 = load i32, i32* %153, align 4
  %155 = call i32 (i8*, ...) @printf(i8* getelementptr inbounds ([6 x i8], [6 x i8]* @.str.2, i64 0, i64 0), i32 %150, i32 %154)
  br label %156

156:                                              ; preds = %146, %140
  br label %157

157:                                              ; preds = %156, %123
  ret void
}

declare dso_local i32 @__isoc99_scanf(i8*, ...) #1

declare dso_local i32 @printf(i8*, ...) #1


!llvm.module.flags = !{!0}
!llvm.ident = !{!1}

!0 = !{i32 1, !"wchar_size", i32 4}
!1 = !{!"clang version 10.0.0-4ubuntu1 "}
